target datalayout = "e-m:e-p270:32:32-p271:32:32-p272:64:64-i64:64-i128:128-f80:128-n8:16:32:64-S128"
target triple = "x86_64-pc-linux-gnu"

%struct.bio_st = type { ptr, ptr, ptr, i32, i32, i32, i32, i32, i32, ptr, ptr, i64, i64 }
%struct.bio_bio_st = type { ptr, i32, i64, i64, i64, ptr, i8, i8, i8, i64 }

@.str = private unnamed_addr constant [121 x i8] c"generated/home/dtcxzyw/WorkSpace/Projects/compilers/llvm-opt-benchmark/bench/libquic/libquic/boringssl/crypto/bio/pair.c\00", align 1

; Function Attrs: nounwind uwtable
define internal i64 @bio_zero_copy_get_write_buf(ptr noundef %0, ptr noundef %1, ptr noundef %2) #0 {
  %4 = alloca ptr, align 8
  %5 = alloca ptr, align 8
  %6 = alloca ptr, align 8
  %7 = alloca i64, align 8
  %8 = alloca i64, align 8
  store ptr %0, ptr %4, align 8, !tbaa !23
  store ptr %1, ptr %5, align 8, !tbaa !11
  store ptr %2, ptr %6, align 8, !tbaa !13
  call void @llvm.lifetime.start.p0(i64 8, ptr %7) #8
  call void @llvm.lifetime.start.p0(i64 8, ptr %8) #8
  %9 = load ptr, ptr %4, align 8, !tbaa !23
  %10 = getelementptr inbounds nuw %struct.bio_bio_st, ptr %9, i32 0, i32 3
  %11 = load i64, ptr %10, align 8, !tbaa !31
  %12 = load ptr, ptr %4, align 8, !tbaa !23
  %13 = getelementptr inbounds nuw %struct.bio_bio_st, ptr %12, i32 0, i32 2
  %14 = load i64, ptr %13, align 8, !tbaa !29
  %15 = add i64 %11, %14
  store i64 %15, ptr %7, align 8, !tbaa !15
  %16 = load i64, ptr %7, align 8, !tbaa !15
  %17 = load ptr, ptr %4, align 8, !tbaa !23
  %18 = getelementptr inbounds nuw %struct.bio_bio_st, ptr %17, i32 0, i32 4
  %19 = load i64, ptr %18, align 8, !tbaa !30
  %20 = icmp uge i64 %16, %19
  br i1 %20, label %21, label %32

21:                                               ; preds = %3
  %22 = load ptr, ptr %4, align 8, !tbaa !23
  %23 = getelementptr inbounds nuw %struct.bio_bio_st, ptr %22, i32 0, i32 4
  %24 = load i64, ptr %23, align 8, !tbaa !30
  %25 = load i64, ptr %7, align 8, !tbaa !15
  %26 = sub i64 %25, %24
  store i64 %26, ptr %7, align 8, !tbaa !15
  %27 = load ptr, ptr %4, align 8, !tbaa !23
  %28 = getelementptr inbounds nuw %struct.bio_bio_st, ptr %27, i32 0, i32 3
  %29 = load i64, ptr %28, align 8, !tbaa !31
  %30 = load i64, ptr %7, align 8, !tbaa !15
  %31 = sub i64 %29, %30
  store i64 %31, ptr %8, align 8, !tbaa !15
  br label %38

32:                                               ; preds = %3
  %33 = load ptr, ptr %4, align 8, !tbaa !23
  %34 = getelementptr inbounds nuw %struct.bio_bio_st, ptr %33, i32 0, i32 4
  %35 = load i64, ptr %34, align 8, !tbaa !30
  %36 = load i64, ptr %7, align 8, !tbaa !15
  %37 = sub i64 %35, %36
  store i64 %37, ptr %8, align 8, !tbaa !15
  br label %38

38:                                               ; preds = %32, %21
  %39 = load ptr, ptr %4, align 8, !tbaa !23
  %40 = getelementptr inbounds nuw %struct.bio_bio_st, ptr %39, i32 0, i32 5
  %41 = load ptr, ptr %40, align 8, !tbaa !32
  %42 = load ptr, ptr %5, align 8, !tbaa !11
  store ptr %41, ptr %42, align 8, !tbaa !33
  %43 = load i64, ptr %7, align 8, !tbaa !15
  %44 = load ptr, ptr %6, align 8, !tbaa !13
  store i64 %43, ptr %44, align 8, !tbaa !15
  %45 = load i64, ptr %8, align 8, !tbaa !15
  call void @llvm.lifetime.end.p0(i64 8, ptr %8) #8
  call void @llvm.lifetime.end.p0(i64 8, ptr %7) #8
  ret i64 %45
}

; Function Attrs: nounwind uwtable
define hidden i32 @BIO_zero_copy_get_write_buf_done(ptr noundef %0, i64 noundef %1) #0 {
  %3 = alloca i32, align 4
  %4 = alloca ptr, align 8
  %5 = alloca i64, align 8
  %6 = alloca ptr, align 8
  %7 = alloca ptr, align 8
  %8 = alloca i64, align 8
  %9 = alloca i64, align 8
  %10 = alloca ptr, align 8
  %11 = alloca i32, align 4
  store ptr %0, ptr %4, align 8, !tbaa !6
  store i64 %1, ptr %5, align 8, !tbaa !15
  call void @llvm.lifetime.start.p0(i64 8, ptr %6) #8
  call void @llvm.lifetime.start.p0(i64 8, ptr %7) #8
  call void @llvm.lifetime.start.p0(i64 8, ptr %8) #8
  call void @llvm.lifetime.start.p0(i64 8, ptr %9) #8
  call void @llvm.lifetime.start.p0(i64 8, ptr %10) #8
  %12 = load ptr, ptr %4, align 8, !tbaa !6
  %13 = getelementptr inbounds nuw %struct.bio_st, ptr %12, i32 0, i32 3
  %14 = load i32, ptr %13, align 8, !tbaa !17
  %15 = icmp ne i32 %14, 0
  br i1 %15, label %17, label %16

16:                                               ; preds = %2
  call void @ERR_put_error(i32 noundef 17, i32 noundef 0, i32 noundef 114, ptr noundef @.str, i32 noundef 363)
  store i32 0, ptr %3, align 4
  store i32 1, ptr %11, align 4
  br label %90

17:                                               ; preds = %2
  %18 = load ptr, ptr %4, align 8, !tbaa !6
  %19 = getelementptr inbounds nuw %struct.bio_st, ptr %18, i32 0, i32 9
  %20 = load ptr, ptr %19, align 8, !tbaa !22
  store ptr %20, ptr %6, align 8, !tbaa !23
  %21 = load ptr, ptr %6, align 8, !tbaa !23
  %22 = icmp ne ptr %21, null
  br i1 %22, label %23, label %33

23:                                               ; preds = %17
  %24 = load ptr, ptr %6, align 8, !tbaa !23
  %25 = getelementptr inbounds nuw %struct.bio_bio_st, ptr %24, i32 0, i32 5
  %26 = load ptr, ptr %25, align 8, !tbaa !32
  %27 = icmp ne ptr %26, null
  br i1 %27, label %28, label %33

28:                                               ; preds = %23
  %29 = load ptr, ptr %6, align 8, !tbaa !23
  %30 = getelementptr inbounds nuw %struct.bio_bio_st, ptr %29, i32 0, i32 0
  %31 = load ptr, ptr %30, align 8, !tbaa !25
  %32 = icmp ne ptr %31, null
  br i1 %32, label %34, label %33

33:                                               ; preds = %28, %23, %17
  call void @ERR_put_error(i32 noundef 17, i32 noundef 0, i32 noundef 115, ptr noundef @.str, i32 noundef 370)
  store i32 0, ptr %3, align 4
  store i32 1, ptr %11, align 4
  br label %90

34:                                               ; preds = %28
  %35 = load ptr, ptr %6, align 8, !tbaa !23
  %36 = getelementptr inbounds nuw %struct.bio_bio_st, ptr %35, i32 0, i32 0
  %37 = load ptr, ptr %36, align 8, !tbaa !25
  %38 = getelementptr inbounds nuw %struct.bio_st, ptr %37, i32 0, i32 9
  %39 = load ptr, ptr %38, align 8, !tbaa !22
  store ptr %39, ptr %7, align 8, !tbaa !23
  %40 = load ptr, ptr %7, align 8, !tbaa !23
  %41 = icmp ne ptr %40, null
  br i1 %41, label %42, label %55

42:                                               ; preds = %34
  %43 = load ptr, ptr %7, align 8, !tbaa !23
  %44 = getelementptr inbounds nuw %struct.bio_bio_st, ptr %43, i32 0, i32 0
  %45 = load ptr, ptr %44, align 8, !tbaa !25
  %46 = icmp ne ptr %45, null
  br i1 %46, label %47, label %55

47:                                               ; preds = %42
  %48 = load ptr, ptr %7, align 8, !tbaa !23
  %49 = getelementptr inbounds nuw %struct.bio_bio_st, ptr %48, i32 0, i32 0
  %50 = load ptr, ptr %49, align 8, !tbaa !25
  %51 = getelementptr inbounds nuw %struct.bio_st, ptr %50, i32 0, i32 9
  %52 = load ptr, ptr %51, align 8, !tbaa !22
  %53 = load ptr, ptr %6, align 8, !tbaa !23
  %54 = icmp ne ptr %52, %53
  br i1 %54, label %55, label %56

55:                                               ; preds = %47, %42, %34
  call void @ERR_put_error(i32 noundef 17, i32 noundef 0, i32 noundef 115, ptr noundef @.str, i32 noundef 375)
  store i32 0, ptr %3, align 4
  store i32 1, ptr %11, align 4
  br label %90

56:                                               ; preds = %47
  %57 = load ptr, ptr %6, align 8, !tbaa !23
  %58 = getelementptr inbounds nuw %struct.bio_bio_st, ptr %57, i32 0, i32 9
  store i64 0, ptr %58, align 8, !tbaa !28
  %59 = load ptr, ptr %6, align 8, !tbaa !23
  %60 = getelementptr inbounds nuw %struct.bio_bio_st, ptr %59, i32 0, i32 1
  %61 = load i32, ptr %60, align 8, !tbaa !36
  %62 = icmp ne i32 %61, 0
  br i1 %62, label %63, label %64

63:                                               ; preds = %56
  call void @ERR_put_error(i32 noundef 17, i32 noundef 0, i32 noundef 101, ptr noundef @.str, i32 noundef 382)
  store i32 0, ptr %3, align 4
  store i32 1, ptr %11, align 4
  br label %90

64:                                               ; preds = %56
  %65 = load ptr, ptr %6, align 8, !tbaa !23
  %66 = getelementptr inbounds nuw %struct.bio_bio_st, ptr %65, i32 0, i32 8
  %67 = load i8, ptr %66, align 2, !tbaa !34
  %68 = icmp ne i8 %67, 0
  br i1 %68, label %70, label %69

69:                                               ; preds = %64
  call void @ERR_put_error(i32 noundef 17, i32 noundef 0, i32 noundef 104, ptr noundef @.str, i32 noundef 387)
  store i32 0, ptr %3, align 4
  store i32 1, ptr %11, align 4
  br label %90

70:                                               ; preds = %64
  %71 = load ptr, ptr %6, align 8, !tbaa !23
  %72 = call i64 @bio_zero_copy_get_write_buf(ptr noundef %71, ptr noundef %10, ptr noundef %9)
  store i64 %72, ptr %8, align 8, !tbaa !15
  %73 = load i64, ptr %5, align 8, !tbaa !15
  %74 = load i64, ptr %8, align 8, !tbaa !15
  %75 = icmp ugt i64 %73, %74
  br i1 %75, label %76, label %77

76:                                               ; preds = %70
  call void @ERR_put_error(i32 noundef 17, i32 noundef 0, i32 noundef 104, ptr noundef @.str, i32 noundef 394)
  store i32 0, ptr %3, align 4
  store i32 1, ptr %11, align 4
  br label %90

77:                                               ; preds = %70
  %78 = load i64, ptr %5, align 8, !tbaa !15
  %79 = load ptr, ptr %4, align 8, !tbaa !6
  %80 = getelementptr inbounds nuw %struct.bio_st, ptr %79, i32 0, i32 12
  %81 = load i64, ptr %80, align 8, !tbaa !37
  %82 = add i64 %81, %78
  store i64 %82, ptr %80, align 8, !tbaa !37
  %83 = load i64, ptr %5, align 8, !tbaa !15
  %84 = load ptr, ptr %6, align 8, !tbaa !23
  %85 = getelementptr inbounds nuw %struct.bio_bio_st, ptr %84, i32 0, i32 2
  %86 = load i64, ptr %85, align 8, !tbaa !29
  %87 = add i64 %86, %83
  store i64 %87, ptr %85, align 8, !tbaa !29
  %88 = load ptr, ptr %6, align 8, !tbaa !23
  %89 = getelementptr inbounds nuw %struct.bio_bio_st, ptr %88, i32 0, i32 8
  store i8 0, ptr %89, align 2, !tbaa !34
  store i32 1, ptr %3, align 4
  store i32 1, ptr %11, align 4
  br label %90

90:                                               ; preds = %77, %76, %69, %63, %55, %33, %16
  call void @llvm.lifetime.end.p0(i64 8, ptr %10) #8
  call void @llvm.lifetime.end.p0(i64 8, ptr %9) #8
  call void @llvm.lifetime.end.p0(i64 8, ptr %8) #8
  call void @llvm.lifetime.end.p0(i64 8, ptr %7) #8
  call void @llvm.lifetime.end.p0(i64 8, ptr %6) #8
  %91 = load i32, ptr %3, align 4
  ret i32 %91
}