; Function Attrs: nounwind uwtable
define hidden range(i32 0, 2) i32 @BIO_zero_copy_get_write_buf_done(ptr noundef captures(none) %0, i64 noundef %1) local_unnamed_addr #0 {
  %3 = getelementptr inbounds nuw i8, ptr %0, i64 24
  %4 = load i32, ptr %3, align 8, !tbaa !10
  %.not = icmp eq i32 %4, 0
  br i1 %.not, label %5, label %6

5:                                                ; preds = %2
  tail call void @ERR_put_error(i32 noundef 17, i32 noundef 0, i32 noundef 114, ptr noundef nonnull @.str, i32 noundef 363) #12
  br label %48

6:                                                ; preds = %2
  %7 = getelementptr inbounds nuw i8, ptr %0, i64 48
  %8 = load ptr, ptr %7, align 8, !tbaa !17
  %.not26 = icmp eq ptr %8, null
  br i1 %.not26, label %14, label %9

9:                                                ; preds = %6
  %10 = getelementptr inbounds nuw i8, ptr %8, i64 40
  %11 = load ptr, ptr %10, align 8, !tbaa !25
  %.not27 = icmp eq ptr %11, null
  br i1 %.not27, label %14, label %12

12:                                               ; preds = %9
  %13 = load ptr, ptr %8, align 8, !tbaa !18
  %.not28 = icmp eq ptr %13, null
  br i1 %.not28, label %14, label %15

14:                                               ; preds = %12, %9, %6
  tail call void @ERR_put_error(i32 noundef 17, i32 noundef 0, i32 noundef 115, ptr noundef nonnull @.str, i32 noundef 370) #12
  br label %48

15:                                               ; preds = %12
  %16 = getelementptr inbounds nuw i8, ptr %13, i64 48
  %17 = load ptr, ptr %16, align 8, !tbaa !17
  %.not29 = icmp eq ptr %17, null
  br i1 %.not29, label %23, label %18

18:                                               ; preds = %15
  %19 = load ptr, ptr %17, align 8, !tbaa !18
  %.not30 = icmp eq ptr %19, null
  br i1 %.not30, label %23, label %20

20:                                               ; preds = %18
  %21 = getelementptr inbounds nuw i8, ptr %19, i64 48
  %22 = load ptr, ptr %21, align 8, !tbaa !17
  %.not31 = icmp eq ptr %22, %8
  br i1 %.not31, label %24, label %23

23:                                               ; preds = %20, %18, %15
  tail call void @ERR_put_error(i32 noundef 17, i32 noundef 0, i32 noundef 115, ptr noundef nonnull @.str, i32 noundef 375) #12
  br label %48

24:                                               ; preds = %20
  %25 = getelementptr inbounds nuw i8, ptr %8, i64 56
  store i64 0, ptr %25, align 8, !tbaa !21
  %26 = getelementptr inbounds nuw i8, ptr %8, i64 8
  %27 = load i32, ptr %26, align 8, !tbaa !29
  %.not32 = icmp eq i32 %27, 0
  br i1 %.not32, label %29, label %28

28:                                               ; preds = %24
  tail call void @ERR_put_error(i32 noundef 17, i32 noundef 0, i32 noundef 101, ptr noundef nonnull @.str, i32 noundef 382) #12
  br label %48

29:                                               ; preds = %24
  %30 = getelementptr inbounds nuw i8, ptr %8, i64 50
  %31 = load i8, ptr %30, align 2, !tbaa !27
  %.not33 = icmp eq i8 %31, 0
  br i1 %.not33, label %32, label %33

32:                                               ; preds = %29
  tail call void @ERR_put_error(i32 noundef 17, i32 noundef 0, i32 noundef 104, ptr noundef nonnull @.str, i32 noundef 387) #12
  br label %48

33:                                               ; preds = %29
  %34 = getelementptr inbounds nuw i8, ptr %8, i64 24
  %35 = load i64, ptr %34, align 8, !tbaa !24
  %36 = getelementptr inbounds nuw i8, ptr %8, i64 16
  %37 = load i64, ptr %36, align 8, !tbaa !22
  %38 = add i64 %37, %35
  %39 = getelementptr inbounds nuw i8, ptr %8, i64 32
  %40 = load i64, ptr %39, align 8, !tbaa !23
  %.not.i = icmp ult i64 %38, %40
  %.0.i.v = select i1 %.not.i, i64 %38, i64 %37
  %.0.i = sub i64 %40, %.0.i.v
  %41 = icmp ugt i64 %1, %.0.i
  br i1 %41, label %42, label %43

42:                                               ; preds = %33
  tail call void @ERR_put_error(i32 noundef 17, i32 noundef 0, i32 noundef 104, ptr noundef nonnull @.str, i32 noundef 394) #12
  br label %48

43:                                               ; preds = %33
  %44 = getelementptr inbounds nuw i8, ptr %0, i64 72
  %45 = load i64, ptr %44, align 8, !tbaa !30
  %46 = add i64 %45, %1
  store i64 %46, ptr %44, align 8, !tbaa !30
  %47 = add i64 %37, %1
  store i64 %47, ptr %36, align 8, !tbaa !22
  store i8 0, ptr %30, align 2, !tbaa !27
  br label %48

48:                                               ; preds = %43, %42, %32, %28, %23, %14, %5
  %.0 = phi i32 [ 0, %23 ], [ 0, %28 ], [ 0, %42 ], [ 1, %43 ], [ 0, %32 ], [ 0, %14 ], [ 0, %5 ]
  ret i32 %.0
}